EXPORTS
?IsDebug@CAppData@@SA_NXZ
?ClearTrace@CAppData@@SAXXZ
?SetDebug@CAppData@@SAX_N@Z
;
??0CA2DockablePane@@QAE@XZ
??1CA2DockablePane@@UAE@XZ
?GetThisMessageMap@CA2DockablePane@@KGPBUAFX_MSGMAP@@XZ
?GetRuntimeClass@CA2DockablePane@@UBEPAUCRuntimeClass@@XZ
?OnCreate@CA2DockablePane@@IAEHPAUtagCREATESTRUCTW@@@Z
?OnSize@CA2DockablePane@@IAEXIHH@Z
?AdjustBorder@CA2DockablePane@@IAEXAAVCRect@@@Z
;
??1CA2MDIFrameWnd@@MAE@XZ
??0CA2MDIFrameWnd@@IAE@XZ
?GetThisClass@CA2MDIFrameWnd@@SGPAUCRuntimeClass@@XZ
?GetThisMessageMap@CA2MDIFrameWnd@@KGPBUAFX_MSGMAP@@XZ
?EnableDefaultMDITabbedGroups@CA2MDIFrameWnd@@IAEXXZ
?AdjustDockingLayout@CA2MDIFrameWnd@@MAEXPAX@Z
?RecalcLayout@CA2MDIFrameWnd@@MAEXH@Z
?DockPanes@CA2BorderPanes@@QAEXPAVCMDIFrameWndEx@@@Z
?OnSettingChange@CA2MDIFrameWnd@@IAEXIPB_W@Z
?OnCmdMsg@CA2MDIFrameWnd@@MAEHIHPAXPAUAFX_CMDHANDLERINFO@@@Z
?OnCreate@CA2MDIFrameWnd@@IAEHPAUtagCREATESTRUCTW@@@Z
;
?TrackPopupMenu@CUITools@@SAXIHPAVCWnd@@VCPoint@@@Z
?GetMonospaceFontFamily@CUITools@@SA?AV?$CStringT@_WV?$StrTraitMFC_DLL@_WV?$ChTraitsCRT@_W@ATL@@@@@ATL@@XZ
?TryDoCmdMsg@CUITools@@SAHIHPAXPAUAFX_CMDHANDLERINFO@@@Z
;
?GetUIFont@CTheme@@SAPAVCFont@@W4FontType@1@@Z
;
?GetThisClass@CA2VisualManager@@SGPAUCRuntimeClass@@XZ
;
??0CA2ToolBoxPane@@QAE@XZ
??1CA2ToolBoxPane@@UAE@XZ
?OnUpdateCmdUI@CA2MFCToolBar@@UAEXPAVCFrameWnd@@H@Z
?GetRowHeight@CA2MFCMenuBar@@UBEHXZ
?Create@CA2BorderPanes@@QAEHPAVCWnd@@@Z
;
??0CA2DocTemplate@@QAE@IPAUCRuntimeClass@@00@Z
;
?ParseParam@CA2CommandLineInfo@@UAEXPB_WHH@Z
